; Function Attrs: mustprogress uwtable
define dso_local void @_ZN4Luau7CodeGen3X6416IrCallWrapperX6419freeSourceRegistersERNS1_12CallArgumentE(ptr noundef nonnull align 8 captures(none) dereferenceable(240) %0, ptr noundef nonnull readonly align 4 captures(none) dereferenceable(25) %1) local_unnamed_addr #4 align 2 {
  %3 = getelementptr inbounds nuw i8, ptr %1, i64 6
  %.sroa.01.0.copyload = load i8, ptr %3, align 2, !tbaa !26
  %4 = and i8 %.sroa.01.0.copyload, 7
  switch i8 %4, label %13 [
    i8 5, label %5
    i8 0, label %_ZN4Luau7CodeGen3X6416IrCallWrapperX6417removeRegisterUseENS1_11RegisterX64E.exit
  ]

5:                                                ; preds = %2
  %6 = getelementptr inbounds nuw i8, ptr %0, i64 224
  %7 = lshr i8 %.sroa.01.0.copyload, 3
  %8 = zext nneg i8 %7 to i64
  %9 = getelementptr inbounds nuw [16 x i8], ptr %6, i64 0, i64 %8
  %10 = load i8, ptr %9, align 1, !tbaa !26
  %11 = add i8 %10, -1
  store i8 %11, ptr %9, align 1, !tbaa !26
  %12 = icmp eq i8 %11, 0
  br i1 %12, label %.sink.split.i, label %_ZN4Luau7CodeGen3X6416IrCallWrapperX6417removeRegisterUseENS1_11RegisterX64E.exit

13:                                               ; preds = %2
  %14 = getelementptr inbounds nuw i8, ptr %0, i64 208
  %15 = lshr i8 %.sroa.01.0.copyload, 3
  %16 = zext nneg i8 %15 to i64
  %17 = getelementptr inbounds nuw [16 x i8], ptr %14, i64 0, i64 %16
  %18 = load i8, ptr %17, align 1, !tbaa !26
  %19 = add i8 %18, -1
  store i8 %19, ptr %17, align 1, !tbaa !26
  %20 = icmp eq i8 %19, 0
  br i1 %20, label %21, label %_ZN4Luau7CodeGen3X6416IrCallWrapperX6417removeRegisterUseENS1_11RegisterX64E.exit

21:                                               ; preds = %13
  %22 = load ptr, ptr %0, align 8, !tbaa !70
  %23 = tail call noundef zeroext i1 @_ZNK4Luau7CodeGen3X6413IrRegAllocX6413shouldFreeGprENS1_11RegisterX64E(ptr noundef nonnull align 8 dereferenceable(256) %22, i8 %.sroa.01.0.copyload)
  br i1 %23, label %.sink.split.i, label %_ZN4Luau7CodeGen3X6416IrCallWrapperX6417removeRegisterUseENS1_11RegisterX64E.exit

.sink.split.i:                                    ; preds = %21, %5
  %24 = load ptr, ptr %0, align 8, !tbaa !70
  tail call void @_ZN4Luau7CodeGen3X6413IrRegAllocX647freeRegENS1_11RegisterX64E(ptr noundef nonnull align 8 dereferenceable(256) %24, i8 %.sroa.01.0.copyload)
  br label %_ZN4Luau7CodeGen3X6416IrCallWrapperX6417removeRegisterUseENS1_11RegisterX64E.exit

_ZN4Luau7CodeGen3X6416IrCallWrapperX6417removeRegisterUseENS1_11RegisterX64E.exit: ; preds = %2, %5, %13, %21, %.sink.split.i
  %25 = getelementptr inbounds nuw i8, ptr %1, i64 5
  %.sroa.0.0.copyload = load i8, ptr %25, align 1, !tbaa !26
  %26 = and i8 %.sroa.0.0.copyload, 7
  switch i8 %26, label %35 [
    i8 5, label %27
    i8 0, label %_ZN4Luau7CodeGen3X6416IrCallWrapperX6417removeRegisterUseENS1_11RegisterX64E.exit5
  ]

27:                                               ; preds = %_ZN4Luau7CodeGen3X6416IrCallWrapperX6417removeRegisterUseENS1_11RegisterX64E.exit
  %28 = getelementptr inbounds nuw i8, ptr %0, i64 224
  %29 = lshr i8 %.sroa.0.0.copyload, 3
  %30 = zext nneg i8 %29 to i64
  %31 = getelementptr inbounds nuw [16 x i8], ptr %28, i64 0, i64 %30
  %32 = load i8, ptr %31, align 1, !tbaa !26
  %33 = add i8 %32, -1
  store i8 %33, ptr %31, align 1, !tbaa !26
  %34 = icmp eq i8 %33, 0
  br i1 %34, label %.sink.split.i4, label %_ZN4Luau7CodeGen3X6416IrCallWrapperX6417removeRegisterUseENS1_11RegisterX64E.exit5

35:                                               ; preds = %_ZN4Luau7CodeGen3X6416IrCallWrapperX6417removeRegisterUseENS1_11RegisterX64E.exit
  %36 = getelementptr inbounds nuw i8, ptr %0, i64 208
  %37 = lshr i8 %.sroa.0.0.copyload, 3
  %38 = zext nneg i8 %37 to i64
  %39 = getelementptr inbounds nuw [16 x i8], ptr %36, i64 0, i64 %38
  %40 = load i8, ptr %39, align 1, !tbaa !26
  %41 = add i8 %40, -1
  store i8 %41, ptr %39, align 1, !tbaa !26
  %42 = icmp eq i8 %41, 0
  br i1 %42, label %43, label %_ZN4Luau7CodeGen3X6416IrCallWrapperX6417removeRegisterUseENS1_11RegisterX64E.exit5

43:                                               ; preds = %35
  %44 = load ptr, ptr %0, align 8, !tbaa !70
  %45 = tail call noundef zeroext i1 @_ZNK4Luau7CodeGen3X6413IrRegAllocX6413shouldFreeGprENS1_11RegisterX64E(ptr noundef nonnull align 8 dereferenceable(256) %44, i8 %.sroa.0.0.copyload)
  br i1 %45, label %.sink.split.i4, label %_ZN4Luau7CodeGen3X6416IrCallWrapperX6417removeRegisterUseENS1_11RegisterX64E.exit5

.sink.split.i4:                                   ; preds = %43, %27
  %46 = load ptr, ptr %0, align 8, !tbaa !70
  tail call void @_ZN4Luau7CodeGen3X6413IrRegAllocX647freeRegENS1_11RegisterX64E(ptr noundef nonnull align 8 dereferenceable(256) %46, i8 %.sroa.0.0.copyload)
  br label %_ZN4Luau7CodeGen3X6416IrCallWrapperX6417removeRegisterUseENS1_11RegisterX64E.exit5

_ZN4Luau7CodeGen3X6416IrCallWrapperX6417removeRegisterUseENS1_11RegisterX64E.exit5: ; preds = %_ZN4Luau7CodeGen3X6416IrCallWrapperX6417removeRegisterUseENS1_11RegisterX64E.exit, %27, %35, %43, %.sink.split.i4
  ret void
}